; Function Attrs: mustprogress nofree norecurse nosync nounwind willreturn memory(readwrite, inaccessiblemem: none) uwtable
define noundef range(i32 0, 65537) i32 @_ZN10duckdb_lz412LZ4_saveDictEPNS_12LZ4_stream_uEPci(ptr noundef captures(none) %0, ptr noundef %1, i32 noundef %2) local_unnamed_addr #12 {
  %4 = getelementptr inbounds nuw i8, ptr %0, i64 16408
  %5 = load i32, ptr %4, align 8, !tbaa !15
  %spec.store.select = tail call i32 @llvm.umin.i32(i32 %2, i32 %5)
  %spec.select = tail call i32 @llvm.umin.i32(i32 %spec.store.select, i32 65536)
  %.not = icmp eq i32 %spec.store.select, 0
  br i1 %.not, label %14, label %6

6:                                                ; preds = %3
  %7 = getelementptr inbounds nuw i8, ptr %0, i64 16384
  %8 = load ptr, ptr %7, align 8, !tbaa !14
  %9 = zext i32 %5 to i64
  %10 = getelementptr inbounds nuw i8, ptr %8, i64 %9
  %11 = zext nneg i32 %spec.select to i64
  %12 = sub nsw i64 0, %11
  %13 = getelementptr inbounds i8, ptr %10, i64 %12
  tail call void @llvm.memmove.p0.p0.i64(ptr align 1 %1, ptr nonnull align 1 %13, i64 %11, i1 false)
  br label %14

14:                                               ; preds = %6, %3
  %15 = getelementptr inbounds nuw i8, ptr %0, i64 16384
  store ptr %1, ptr %15, align 8, !tbaa !14
  store i32 %spec.select, ptr %4, align 8, !tbaa !15
  ret i32 %spec.select
}